target datalayout = "e-m:e-p270:32:32-p271:32:32-p272:64:64-i64:64-i128:128-f80:128-n8:16:32:64-S128"
target triple = "x86_64-pc-linux-gnu"

%"class.nix::ref" = type { %"class.std::shared_ptr" }
%"class.std::shared_ptr" = type { %"class.std::__shared_ptr" }
%"class.std::__shared_ptr" = type { ptr, %"class.std::__shared_count" }
%"class.std::__shared_count" = type { ptr }
%"class.nix::ref.0" = type { %"class.std::shared_ptr.1" }
%"class.std::shared_ptr.1" = type { %"class.std::__shared_ptr.2" }
%"class.std::__shared_ptr.2" = type { ptr, %"class.std::__shared_count" }

; Function Attrs: mustprogress uwtable
define void @_ZN3nix24makeMountedInputAccessorESt3mapINS_9CanonPathENS_3refINS_13InputAccessorEEESt4lessIS1_ESaISt4pairIKS1_S4_EEE(ptr dead_on_unwind noalias writable sret(%"class.nix::ref") align 8 %0, ptr noundef %1) #5 personality ptr @__gxx_personality_v0 {
  %3 = alloca ptr, align 8
  %4 = alloca ptr, align 8
  %5 = alloca %"class.nix::ref.0", align 8
  %6 = alloca ptr, align 8
  %7 = alloca i32, align 4
  store ptr %0, ptr %3, align 8
  store ptr %1, ptr %4, align 8
  call void @_ZN3nix8make_refINS_20MountedInputAccessorEJSt3mapINS_9CanonPathENS_3refINS_13InputAccessorEEESt4lessIS3_ESaISt4pairIKS3_S6_EEEEEENS4_IT_EEDpOT0_(ptr dead_on_unwind writable sret(%"class.nix::ref.0") align 8 %5, ptr noundef nonnull align 8 dereferenceable(48) %1)
  invoke void @_ZNK3nix3refINS_20MountedInputAccessorEEcvNS0_IT_EEINS_13InputAccessorEEEv(ptr dead_on_unwind writable sret(%"class.nix::ref") align 8 %0, ptr noundef nonnull align 8 dereferenceable(16) %5)
          to label %8 unwind label %9

8:                                                ; preds = %2
  call void @_ZN3nix3refINS_20MountedInputAccessorEED2Ev(ptr noundef nonnull align 8 dereferenceable(16) %5) #3
  ret void

9:                                                ; preds = %2
  %10 = landingpad { ptr, i32 }
          cleanup
  %11 = extractvalue { ptr, i32 } %10, 0
  store ptr %11, ptr %6, align 8
  %12 = extractvalue { ptr, i32 } %10, 1
  store i32 %12, ptr %7, align 4
  call void @_ZN3nix3refINS_20MountedInputAccessorEED2Ev(ptr noundef nonnull align 8 dereferenceable(16) %5) #3
  br label %13

13:                                               ; preds = %9
  %14 = load ptr, ptr %6, align 8
  %15 = load i32, ptr %7, align 4
  %16 = insertvalue { ptr, i32 } poison, ptr %14, 0
  %17 = insertvalue { ptr, i32 } %16, i32 %15, 1
  resume { ptr, i32 } %17
}